; Function Attrs: mustprogress uwtable
define hidden noundef zeroext i1 @_ZN4cvc58internal6theory2bv16BVSolverBitblast19needsEqualityEngineERNS1_11EeSetupInfoE(ptr noundef nonnull align 8 dereferenceable(680) %this, ptr nocapture nonnull readnone align 8 %esi) unnamed_addr #3 align 2 {
entry:
  %call = tail call noundef nonnull align 8 dereferenceable(88) ptr @_ZNK4cvc58internal6EnvObj9logicInfoEv(ptr noundef nonnull align 8 dereferenceable(16) %this)
  %call2 = tail call noundef zeroext i1 @_ZNK4cvc58internal9LogicInfo16isSharingEnabledEv(ptr noundef nonnull align 8 dereferenceable(88) %call)
  br i1 %call2, label %lor.end, label %lor.rhs

lor.rhs:                                          ; preds = %entry
  %call3 = tail call noundef nonnull align 8 dereferenceable(392) ptr @_ZNK4cvc58internal6EnvObj7optionsEv(ptr noundef nonnull align 8 dereferenceable(16) %this)
  %bv = getelementptr inbounds i8, ptr %call3, i64 232
  %0 = load ptr, ptr %bv, align 8
  %bvEqEngine = getelementptr inbounds i8, ptr %0, i64 17
  %1 = load i8, ptr %bvEqEngine, align 1
  %2 = and i8 %1, 1
  %tobool = icmp ne i8 %2, 0
  br label %lor.end

lor.end:                                          ; preds = %lor.rhs, %entry
  %3 = phi i1 [ true, %entry ], [ %tobool, %lor.rhs ]
  ret i1 %3
}